; Function Attrs: mustprogress uwtable
define dso_local void @_ZN4Luau7CodeGen3A6418AssemblyBuilderA643rorENS1_11RegisterA64ES3_S3_(ptr noundef nonnull align 8 dereferenceable(176) %0, i8 %1, i8 %2, i8 %3) local_unnamed_addr #0 align 2 {
  %5 = getelementptr inbounds nuw i8, ptr %0, i64 80
  %6 = load i8, ptr %5, align 8, !tbaa !14, !range !46, !noundef !47
  %7 = trunc nuw i8 %6 to i1
  br i1 %7, label %8, label %9

8:                                                ; preds = %4
  tail call void @_ZN4Luau7CodeGen3A6418AssemblyBuilderA643logEPKcNS1_11RegisterA64ES5_S5_i(ptr noundef nonnull align 8 dereferenceable(176) %0, ptr noundef nonnull @.str.19, i8 %1, i8 %2, i8 %3, i32 noundef 0)
  br label %9

9:                                                ; preds = %8, %4
  %10 = and i8 %1, 7
  %11 = icmp eq i8 %10, 2
  %12 = select i1 %11, i32 -2147483648, i32 0
  %13 = lshr i8 %1, 3
  %14 = zext nneg i8 %13 to i32
  %15 = lshr i8 %2, 3
  %16 = zext nneg i8 %15 to i32
  %17 = shl nuw nsw i32 %16, 5
  %18 = or disjoint i32 %17, %14
  %19 = lshr i8 %3, 3
  %20 = zext nneg i8 %19 to i32
  %21 = shl nuw nsw i32 %20, 16
  %22 = or disjoint i32 %18, %21
  %23 = or disjoint i32 %22, %12
  %24 = or i32 %23, 448801792
  %25 = getelementptr inbounds nuw i8, ptr %0, i64 160
  %26 = load ptr, ptr %25, align 8, !tbaa !39
  %27 = getelementptr inbounds nuw i8, ptr %26, i64 4
  store ptr %27, ptr %25, align 8, !tbaa !39
  store i32 %24, ptr %26, align 4, !tbaa !48
  %28 = getelementptr inbounds nuw i8, ptr %0, i64 168
  %29 = load ptr, ptr %28, align 8, !tbaa !40
  %30 = icmp eq ptr %29, %27
  br i1 %30, label %31, label %_ZN4Luau7CodeGen3A6418AssemblyBuilderA647placeR3EPKcNS1_11RegisterA64ES5_S5_hh.exit

31:                                               ; preds = %9
  tail call void @_ZN4Luau7CodeGen3A6418AssemblyBuilderA646extendEv(ptr noundef nonnull align 8 dereferenceable(176) %0)
  br label %_ZN4Luau7CodeGen3A6418AssemblyBuilderA647placeR3EPKcNS1_11RegisterA64ES5_S5_hh.exit

_ZN4Luau7CodeGen3A6418AssemblyBuilderA647placeR3EPKcNS1_11RegisterA64ES5_S5_hh.exit: ; preds = %9, %31
  ret void
}